(dp0
S'11'
p1
cnumpy.core.multiarray
_reconstruct
p2
(cnumpy
ndarray
p3
(I0
tp4
S'b'
p5
tp6
Rp7
(I1
(I2
tp8
cnumpy
dtype
p9
(S'f4'
p10
I0
I1
tp11
Rp12
(I3
S'<'
p13
NNNI-1
I-1
I0
tp14
bI00
S'\xf0x\xc8<D\xe4\xb0>'
p15
tp16
bsS'10'
p17
g2
(g3
(I0
tp18
g5
tp19
Rp20
(I1
(I2
tp21
g12
I00
S'\x00\x00\x00\x00\xff\xff\xff>'
p22
tp23
bsS'13'
p24
g2
(g3
(I0
tp25
g5
tp26
Rp27
(I1
(I2
tp28
g12
I00
S'\xd6\rS>\x04\x91\xc3='
p29
tp30
bsS'12'
p31
g2
(g3
(I0
tp32
g5
tp33
Rp34
(I1
(I2
tp35
g12
I00
S'\x10\x91\xc3=\xcc\rS>'
p36
tp37
bsS'15'
p38
g2
(g3
(I0
tp39
g5
tp40
Rp41
(I1
(I2
tp42
g12
I00
S'\x00\x00\x00?\x00\x00\x00\x00'
p43
tp44
bsS'14'
p45
g2
(g3
(I0
tp46
g5
tp47
Rp48
(I1
(I2
tp49
g12
I00
S'B\xe4\xb0>\x00y\xc8<'
p50
tp51
bsS'17'
p52
g2
(g3
(I0
tp53
g5
tp54
Rp55
(I1
(I2
tp56
g12
I00
S'\x8e<K?\x18\x91\xc3='
p57
tp58
bsS'16'
p59
g2
(g3
(I0
tp60
g5
tp61
Rp62
(I1
(I2
tp63
g12
I00
S"\xe0\x8d'?\x00y\xc8<"
p64
tp65
bsS'19'
p66
g2
(g3
(I0
tp67
g5
tp68
Rp69
(I1
(I2
tp70
g12
I00
S'8\xbcy?D\xe4\xb0>'
p71
tp72
bsS'18'
p73
g2
(g3
(I0
tp74
g5
tp75
Rp76
(I1
(I2
tp77
g12
I00
S'\xe0\x8dg?\xda\rS>'
p78
tp79
bsS'1'
p80
g2
(g3
(I0
tp81
g5
tp82
Rp83
(I1
(I2
tp84
g12
I00
S"8\xbcy?\xde\x8d'?"
p85
tp86
bsS'0'
p87
g2
(g3
(I0
tp88
g5
tp89
Rp90
(I1
(I2
tp91
g12
I00
S'\x00\x00\x80?\x00\x00\x00?'
p92
tp93
bsS'3'
p94
g2
(g3
(I0
tp95
g5
tp96
Rp97
(I1
(I2
tp98
g12
I00
S'\x8c<K?\xde\x8dg?'
p99
tp100
bsS'2'
p101
g2
(g3
(I0
tp102
g5
tp103
Rp104
(I1
(I2
tp105
g12
I00
S'\xde\x8dg?\x8c<K?'
p106
tp107
bsS'5'
p108
g2
(g3
(I0
tp109
g5
tp110
Rp111
(I1
(I2
tp112
g12
I00
S'\xff\xff\xff>\x00\x00\x80?'
p113
tp114
bsS'4'
p115
g2
(g3
(I0
tp116
g5
tp117
Rp118
(I1
(I2
tp119
g12
I00
S"\xde\x8d'?8\xbcy?"
p120
tp121
bsS'7'
p122
g2
(g3
(I0
tp123
g5
tp124
Rp125
(I1
(I2
tp126
g12
I00
S'\xd2\rS>\xde\x8dg?'
p127
tp128
bsS'6'
p129
g2
(g3
(I0
tp130
g5
tp131
Rp132
(I1
(I2
tp133
g12
I00
S'B\xe4\xb0>8\xbcy?'
p134
tp135
bsS'9'
p136
g2
(g3
(I0
tp137
g5
tp138
Rp139
(I1
(I2
tp140
g12
I00
S"\xe0x\xc8<\xdd\x8d'?"
p141
tp142
bsS'8'
p143
g2
(g3
(I0
tp144
g5
tp145
Rp146
(I1
(I2
tp147
g12
I00
S'\x08\x91\xc3=\x8c<K?'
p148
tp149
bs.