(dp0
S'42'
p1
(F0.0
F0.2857142857142857
tp2
sS'48'
p3
(F0.2857142857142857
F0.5714285714285714
tp4
sS'43'
p5
(F0.0
F0.8571428571428571
tp6
sS'24'
p7
(F0.42857142857142855
F0.2857142857142857
tp8
sS'25'
p9
(F0.0
F0.0
tp10
sS'26'
p11
(F0.7142857142857143
F0.0
tp12
sS'27'
p13
(F0.5714285714285714
F0.7142857142857143
tp14
sS'20'
p15
(F0.7142857142857143
F0.42857142857142855
tp16
sS'21'
p17
(F0.5714285714285714
F0.14285714285714285
tp18
sS'22'
p19
(F0.14285714285714285
F0.14285714285714285
tp20
sS'23'
p21
(F0.8571428571428571
F0.5714285714285714
tp22
sS'46'
p23
(F0.2857142857142857
F0.42857142857142855
tp24
sS'47'
p25
(F0.42857142857142855
F0.5714285714285714
tp26
sS'44'
p27
(F0.8571428571428571
F0.2857142857142857
tp28
sS'45'
p29
(F0.5714285714285714
F0.42857142857142855
tp30
sS'28'
p31
(F0.0
F0.5714285714285714
tp32
sS'29'
p33
(F0.7142857142857143
F0.7142857142857143
tp34
sS'40'
p35
(F0.8571428571428571
F0.14285714285714285
tp36
sS'41'
p37
(F0.42857142857142855
F0.14285714285714285
tp38
sS'1'
p39
(F0.8571428571428571
F0.8571428571428571
tp40
sS'0'
p41
(F0.14285714285714285
F0.42857142857142855
tp42
sS'3'
p43
(F0.7142857142857143
F0.5714285714285714
tp44
sS'2'
p45
(F0.42857142857142855
F0.0
tp46
sS'5'
p47
(F0.7142857142857143
F0.8571428571428571
tp48
sS'4'
p49
(F0.2857142857142857
F0.14285714285714285
tp50
sS'7'
p51
(F0.14285714285714285
F0.8571428571428571
tp52
sS'6'
p53
(F0.2857142857142857
F0.8571428571428571
tp54
sS'9'
p55
(F0.0
F0.42857142857142855
tp56
sS'8'
p57
(F0.7142857142857143
F0.14285714285714285
tp58
sS'39'
p59
(F0.7142857142857143
F0.2857142857142857
tp60
sS'38'
p61
(F0.5714285714285714
F0.8571428571428571
tp62
sS'11'
p63
(F0.5714285714285714
F0.0
tp64
sS'10'
p65
(F0.2857142857142857
F0.7142857142857143
tp66
sS'13'
p67
(F0.42857142857142855
F0.42857142857142855
tp68
sS'12'
p69
(F0.14285714285714285
F0.2857142857142857
tp70
sS'15'
p71
(F0.5714285714285714
F0.5714285714285714
tp72
sS'14'
p73
(F0.2857142857142857
F0.0
tp74
sS'17'
p75
(F0.14285714285714285
F0.7142857142857143
tp76
sS'16'
p77
(F0.8571428571428571
F0.42857142857142855
tp78
sS'19'
p79
(F0.2857142857142857
F0.2857142857142857
tp80
sS'18'
p81
(F0.42857142857142855
F0.8571428571428571
tp82
sS'31'
p83
(F0.8571428571428571
F0.0
tp84
sS'30'
p85
(F0.14285714285714285
F0.5714285714285714
tp86
sS'37'
p87
(F0.0
F0.14285714285714285
tp88
sS'36'
p89
(F0.42857142857142855
F0.7142857142857143
tp90
sS'35'
p91
(F0.8571428571428571
F0.7142857142857143
tp92
sS'34'
p93
(F0.14285714285714285
F0.0
tp94
sS'33'
p95
(F0.5714285714285714
F0.2857142857142857
tp96
sS'32'
p97
(F0.0
F0.7142857142857143
tp98
s.